target datalayout = "e-m:e-p270:32:32-p271:32:32-p272:64:64-i64:64-i128:128-f80:128-n8:16:32:64-S128"
target triple = "x86_64-pc-linux-gnu"

%struct.FFFilterGraph = type { %struct.AVFilterGraph, ptr, i32, i32, ptr, ptr, %struct.FFFrameQueueGlobal }
%struct.AVFilterGraph = type { ptr, ptr, i32, ptr, i32, i32, ptr, ptr, ptr }
%struct.FFFrameQueueGlobal = type { i8 }
%struct.AVFilterContext = type { ptr, ptr, ptr, ptr, ptr, i32, ptr, ptr, i32, ptr, ptr, i32, i32, ptr, ptr, ptr, ptr, i32, ptr, i32, i32 }

@.str = private unnamed_addr constant [35 x i8] c"Error initializing threading: %s.\0A\00", align 1

; Function Attrs: inlinehint nounwind uwtable
define internal ptr @av_make_error_string(ptr noundef %0, i64 noundef %1, i32 noundef %2) #3 {
  %4 = alloca ptr, align 8
  %5 = alloca i64, align 8
  %6 = alloca i32, align 4
  store ptr %0, ptr %4, align 8, !tbaa !53
  store i64 %1, ptr %5, align 8, !tbaa !62
  store i32 %2, ptr %6, align 4, !tbaa !20
  %7 = load i32, ptr %6, align 4, !tbaa !20
  %8 = load ptr, ptr %4, align 8, !tbaa !53
  %9 = load i64, ptr %5, align 8, !tbaa !62
  %10 = call i32 @av_strerror(i32 noundef %7, ptr noundef %8, i64 noundef %9)
  %11 = load ptr, ptr %4, align 8, !tbaa !53
  ret ptr %11
}

; Function Attrs: inlinehint nounwind uwtable
define internal ptr @fffiltergraph(ptr noundef %0) #3 {
  %2 = alloca ptr, align 8
  store ptr %0, ptr %2, align 8, !tbaa !9
  %3 = load ptr, ptr %2, align 8, !tbaa !9
  ret ptr %3
}

; Function Attrs: nounwind uwtable
define ptr @avfilter_graph_alloc_filter(ptr noundef %0, ptr noundef %1, ptr noundef %2) #0 {
  %4 = alloca ptr, align 8
  %5 = alloca ptr, align 8
  %6 = alloca ptr, align 8
  %7 = alloca ptr, align 8
  %8 = alloca ptr, align 8
  %9 = alloca ptr, align 8
  %10 = alloca ptr, align 8
  %11 = alloca i32, align 4
  %12 = alloca [64 x i8], align 1
  %13 = alloca i32, align 4
  store ptr %0, ptr %5, align 8, !tbaa !9
  store ptr %1, ptr %6, align 8, !tbaa !52
  store ptr %2, ptr %7, align 8, !tbaa !53
  call void @llvm.lifetime.start.p0(i64 8, ptr %8) #11
  call void @llvm.lifetime.start.p0(i64 8, ptr %9) #11
  call void @llvm.lifetime.start.p0(i64 8, ptr %10) #11
  %14 = load ptr, ptr %5, align 8, !tbaa !9
  %15 = call ptr @fffiltergraph(ptr noundef %14)
  store ptr %15, ptr %10, align 8, !tbaa !4
  %16 = load ptr, ptr %5, align 8, !tbaa !9
  %17 = getelementptr inbounds nuw %struct.AVFilterGraph, ptr %16, i32 0, i32 4
  %18 = load i32, ptr %17, align 8, !tbaa !55
  %19 = icmp ne i32 %18, 0
  br i1 %19, label %20, label %51

20:                                               ; preds = %3
  %21 = load ptr, ptr %10, align 8, !tbaa !4
  %22 = getelementptr inbounds nuw %struct.FFFilterGraph, ptr %21, i32 0, i32 5
  %23 = load ptr, ptr %22, align 8, !tbaa !56
  %24 = icmp ne ptr %23, null
  br i1 %24, label %51, label %25

25:                                               ; preds = %20
  %26 = load ptr, ptr %5, align 8, !tbaa !9
  %27 = getelementptr inbounds nuw %struct.AVFilterGraph, ptr %26, i32 0, i32 7
  %28 = load ptr, ptr %27, align 8, !tbaa !60
  %29 = icmp ne ptr %28, null
  br i1 %29, label %30, label %36

30:                                               ; preds = %25
  %31 = load ptr, ptr %5, align 8, !tbaa !9
  %32 = getelementptr inbounds nuw %struct.AVFilterGraph, ptr %31, i32 0, i32 7
  %33 = load ptr, ptr %32, align 8, !tbaa !60
  %34 = load ptr, ptr %10, align 8, !tbaa !4
  %35 = getelementptr inbounds nuw %struct.FFFilterGraph, ptr %34, i32 0, i32 5
  store ptr %33, ptr %35, align 8, !tbaa !56
  br label %50

36:                                               ; preds = %25
  call void @llvm.lifetime.start.p0(i64 4, ptr %11) #11
  %37 = load ptr, ptr %10, align 8, !tbaa !4
  %38 = call i32 @ff_graph_thread_init(ptr noundef %37)
  store i32 %38, ptr %11, align 4, !tbaa !20
  %39 = load i32, ptr %11, align 4, !tbaa !20
  %40 = icmp slt i32 %39, 0
  br i1 %40, label %41, label %46

41:                                               ; preds = %36
  %42 = load ptr, ptr %5, align 8, !tbaa !9
  call void @llvm.memset.p0.i64(ptr align 1 %12, i8 0, i64 64, i1 false)
  %43 = getelementptr inbounds [64 x i8], ptr %12, i64 0, i64 0
  %44 = load i32, ptr %11, align 4, !tbaa !20
  %45 = call ptr @av_make_error_string(ptr noundef %43, i64 noundef 64, i32 noundef %44)
  call void (ptr, i32, ptr, ...) @av_log(ptr noundef %42, i32 noundef 16, ptr noundef @.str, ptr noundef %45)
  store ptr null, ptr %4, align 8
  store i32 1, ptr %13, align 4
  br label %47

46:                                               ; preds = %36
  store i32 0, ptr %13, align 4
  br label %47

47:                                               ; preds = %46, %41
  call void @llvm.lifetime.end.p0(i64 4, ptr %11) #11
  %48 = load i32, ptr %13, align 4
  switch i32 %48, label %89 [
    i32 0, label %49
  ]

49:                                               ; preds = %47
  br label %50

50:                                               ; preds = %49, %30
  br label %51

51:                                               ; preds = %50, %20, %3
  %52 = load ptr, ptr %5, align 8, !tbaa !9
  %53 = getelementptr inbounds nuw %struct.AVFilterGraph, ptr %52, i32 0, i32 1
  %54 = load ptr, ptr %53, align 8, !tbaa !22
  %55 = load ptr, ptr %5, align 8, !tbaa !9
  %56 = getelementptr inbounds nuw %struct.AVFilterGraph, ptr %55, i32 0, i32 2
  %57 = load i32, ptr %56, align 8, !tbaa !21
  %58 = add i32 %57, 1
  %59 = zext i32 %58 to i64
  %60 = call ptr @av_realloc_array(ptr noundef %54, i64 noundef %59, i64 noundef 8)
  store ptr %60, ptr %8, align 8, !tbaa !51
  %61 = load ptr, ptr %8, align 8, !tbaa !51
  %62 = icmp ne ptr %61, null
  br i1 %62, label %64, label %63

63:                                               ; preds = %51
  store ptr null, ptr %4, align 8
  store i32 1, ptr %13, align 4
  br label %89

64:                                               ; preds = %51
  %65 = load ptr, ptr %8, align 8, !tbaa !51
  %66 = load ptr, ptr %5, align 8, !tbaa !9
  %67 = getelementptr inbounds nuw %struct.AVFilterGraph, ptr %66, i32 0, i32 1
  store ptr %65, ptr %67, align 8, !tbaa !22
  %68 = load ptr, ptr %6, align 8, !tbaa !52
  %69 = load ptr, ptr %7, align 8, !tbaa !53
  %70 = call ptr @ff_filter_alloc(ptr noundef %68, ptr noundef %69)
  store ptr %70, ptr %9, align 8, !tbaa !18
  %71 = load ptr, ptr %9, align 8, !tbaa !18
  %72 = icmp ne ptr %71, null
  br i1 %72, label %74, label %73

73:                                               ; preds = %64
  store ptr null, ptr %4, align 8
  store i32 1, ptr %13, align 4
  br label %89

74:                                               ; preds = %64
  %75 = load ptr, ptr %9, align 8, !tbaa !18
  %76 = load ptr, ptr %5, align 8, !tbaa !9
  %77 = getelementptr inbounds nuw %struct.AVFilterGraph, ptr %76, i32 0, i32 1
  %78 = load ptr, ptr %77, align 8, !tbaa !22
  %79 = load ptr, ptr %5, align 8, !tbaa !9
  %80 = getelementptr inbounds nuw %struct.AVFilterGraph, ptr %79, i32 0, i32 2
  %81 = load i32, ptr %80, align 8, !tbaa !21
  %82 = add i32 %81, 1
  store i32 %82, ptr %80, align 8, !tbaa !21
  %83 = zext i32 %81 to i64
  %84 = getelementptr inbounds nuw ptr, ptr %78, i64 %83
  store ptr %75, ptr %84, align 8, !tbaa !18
  %85 = load ptr, ptr %5, align 8, !tbaa !9
  %86 = load ptr, ptr %9, align 8, !tbaa !18
  %87 = getelementptr inbounds nuw %struct.AVFilterContext, ptr %86, i32 0, i32 10
  store ptr %85, ptr %87, align 8, !tbaa !23
  %88 = load ptr, ptr %9, align 8, !tbaa !18
  store ptr %88, ptr %4, align 8
  store i32 1, ptr %13, align 4
  br label %89

89:                                               ; preds = %74, %73, %63, %47
  call void @llvm.lifetime.end.p0(i64 8, ptr %10) #11
  call void @llvm.lifetime.end.p0(i64 8, ptr %9) #11
  call void @llvm.lifetime.end.p0(i64 8, ptr %8) #11
  %90 = load ptr, ptr %4, align 8
  ret ptr %90
}