; Function Attrs: nounwind uwtable
define ptr @avfilter_graph_alloc_filter(ptr noundef %0, ptr noundef %1, ptr noundef %2) local_unnamed_addr #0 {
  %4 = alloca [64 x i8], align 1
  %5 = getelementptr inbounds nuw i8, ptr %0, i64 32
  %6 = load i32, ptr %5, align 8, !tbaa !46
  %.not = icmp eq i32 %6, 0
  br i1 %.not, label %.critedge, label %7

7:                                                ; preds = %3
  %8 = getelementptr inbounds nuw i8, ptr %0, i64 88
  %9 = load ptr, ptr %8, align 8, !tbaa !47
  %.not30 = icmp eq ptr %9, null
  br i1 %.not30, label %10, label %.critedge

10:                                               ; preds = %7
  %11 = getelementptr inbounds nuw i8, ptr %0, i64 48
  %12 = load ptr, ptr %11, align 8, !tbaa !51
  %.not31 = icmp eq ptr %12, null
  br i1 %.not31, label %14, label %13

13:                                               ; preds = %10
  store ptr %12, ptr %8, align 8, !tbaa !47
  br label %.critedge

14:                                               ; preds = %10
  %15 = tail call i32 @ff_graph_thread_init(ptr noundef nonnull %0) #14
  %16 = icmp sgt i32 %15, -1
  br i1 %16, label %.critedge, label %17

17:                                               ; preds = %14
  call void @llvm.memset.p0.i64(ptr noundef nonnull align 1 dereferenceable(64) %4, i8 0, i64 64, i1 false)
  %18 = call i32 @av_strerror(i32 noundef range(i32 -2147483648, 0) %15, ptr noundef nonnull %4, i64 noundef 64) #14
  call void (ptr, i32, ptr, ...) @av_log(ptr noundef nonnull %0, i32 noundef 16, ptr noundef nonnull @.str, ptr noundef nonnull %4) #14
  br label %35

.critedge:                                        ; preds = %14, %13, %7, %3
  %19 = getelementptr inbounds nuw i8, ptr %0, i64 8
  %20 = load ptr, ptr %19, align 8, !tbaa !15
  %21 = getelementptr inbounds nuw i8, ptr %0, i64 16
  %22 = load i32, ptr %21, align 8, !tbaa !14
  %23 = add i32 %22, 1
  %24 = zext i32 %23 to i64
  %25 = tail call ptr @av_realloc_array(ptr noundef %20, i64 noundef %24, i64 noundef 8) #14
  %.not32 = icmp eq ptr %25, null
  br i1 %.not32, label %35, label %26

26:                                               ; preds = %.critedge
  store ptr %25, ptr %19, align 8, !tbaa !15
  %27 = tail call ptr @ff_filter_alloc(ptr noundef %1, ptr noundef %2) #14
  %.not33 = icmp eq ptr %27, null
  br i1 %.not33, label %35, label %28

28:                                               ; preds = %26
  %29 = load ptr, ptr %19, align 8, !tbaa !15
  %30 = load i32, ptr %21, align 8, !tbaa !14
  %31 = add i32 %30, 1
  store i32 %31, ptr %21, align 8, !tbaa !14
  %32 = zext i32 %30 to i64
  %33 = getelementptr inbounds nuw ptr, ptr %29, i64 %32
  store ptr %27, ptr %33, align 8, !tbaa !18
  %34 = getelementptr inbounds nuw i8, ptr %27, i64 80
  store ptr %0, ptr %34, align 8, !tbaa !20
  br label %35

35:                                               ; preds = %17, %26, %.critedge, %28
  %.1 = phi ptr [ %27, %28 ], [ null, %17 ], [ null, %.critedge ], [ null, %26 ]
  ret ptr %.1
}